target datalayout = "e-m:e-p270:32:32-p271:32:32-p272:64:64-i64:64-i128:128-f80:128-n8:16:32:64-S128"
target triple = "x86_64-pc-linux-gnu"

%struct.Curl_cftype = type { ptr, i32, i32, ptr, ptr, ptr, ptr, ptr, ptr, ptr, ptr, ptr, ptr, ptr, ptr }
%struct.Curl_sockaddr_ex = type { i32, i32, i32, i32, %union.anon }
%union.anon = type { %struct.Curl_sockaddr_storage }
%struct.Curl_sockaddr_storage = type { %union.anon.0 }
%union.anon.0 = type { %struct.sockaddr_storage }
%struct.sockaddr_storage = type { i16, [118 x i8], i64 }
%struct.Curl_easy = type { i32, i64, ptr, ptr, ptr, %struct.Curl_llist_element, %struct.Curl_llist_element, i32, i32, %struct.Curl_message, %struct.easy_pollset, %struct.Names, ptr, ptr, ptr, %struct.SingleRequest, %struct.UserDefined, ptr, ptr, %struct.Progress, %struct.UrlState, ptr, %struct.PureInfo, %struct.curl_tlssessioninfo }
%struct.Curl_llist_element = type { ptr, ptr, ptr }
%struct.Curl_message = type { %struct.Curl_llist_element, %struct.CURLMsg }
%struct.CURLMsg = type { i32, ptr, %union.anon.3 }
%union.anon.3 = type { ptr }
%struct.easy_pollset = type { [5 x i32], i32, [5 x i8] }
%struct.Names = type { ptr, i32 }
%struct.SingleRequest = type <{ i64, i64, i64, i64, i64, %struct.curltime, i32, i32, i32, i32, i64, i32, i32, %struct.curltime, i32, i32, ptr, i64, i64, ptr, ptr, i64, ptr, %union.anon.4, ptr, [2 x i8], i8, i16, [3 x i8] }>
%struct.curltime = type { i64, i32 }
%union.anon.4 = type { ptr }
%struct.UserDefined = type <{ ptr, ptr, ptr, ptr, ptr, ptr, i16, [6 x i8], i64, i64, i64, ptr, ptr, i64, i16, i16, [4 x i8], ptr, ptr, ptr, ptr, ptr, ptr, ptr, ptr, ptr, ptr, ptr, ptr, ptr, ptr, ptr, ptr, ptr, ptr, ptr, ptr, ptr, ptr, ptr, i32, i32, i32, i32, i64, i64, i64, i64, i64, i64, i64, i64, ptr, ptr, %struct.curl_mimepart, ptr, ptr, i64, i8, i8, i8, [5 x i8], %struct.ssl_config_data, %struct.ssl_config_data, ptr, i16, i8, i8, [4 x i8], %struct.ssl_general_config, i32, i32, i32, [4 x i8], ptr, ptr, i8, [7 x i8], i64, i8, i8, i8, i8, i32, ptr, ptr, ptr, i8, i8, [2 x i8], i32, [80 x ptr], [8 x ptr], i32, i32, i32, [4 x i8], ptr, ptr, ptr, ptr, ptr, i8, [3 x i8], i32, i32, [4 x i8], i64, %struct.Curl_data_priority, ptr, ptr, i64, ptr, ptr, ptr, ptr, ptr, i8, [3 x i8], i32, i8, i8, i56, [6 x i8] }>
%struct.curl_mimepart = type { ptr, ptr, i32, i32, ptr, ptr, ptr, ptr, ptr, ptr, ptr, ptr, ptr, ptr, ptr, i64, %struct.mime_state, ptr, %struct.mime_encoder_state, i64 }
%struct.mime_state = type { i32, ptr, i64 }
%struct.mime_encoder_state = type { i64, i64, i64, [256 x i8] }
%struct.ssl_config_data = type { %struct.ssl_primary_config, i64, ptr, ptr, ptr, ptr, ptr, ptr, ptr, i8 }
%struct.ssl_primary_config = type { ptr, ptr, ptr, ptr, ptr, ptr, ptr, ptr, ptr, ptr, ptr, ptr, i8, i32, i8, i8 }
%struct.ssl_general_config = type { i64, i32 }
%struct.Curl_data_priority = type { ptr, ptr, i32, i8 }
%struct.Progress = type { i64, i64, i64, i64, i64, i64, i32, i32, i64, i64, i64, i64, i64, i64, i64, i64, i64, i64, %struct.curltime, %struct.curltime, %struct.curltime, %struct.curltime, %struct.curltime, i64, %struct.curltime, i64, [6 x i64], [6 x %struct.curltime], i32, i8 }
%struct.UrlState = type { ptr, %struct.curltime, i64, i64, %struct.dynbuf, ptr, ptr, ptr, i64, ptr, i32, i32, i32, ptr, i64, [3 x %struct.tempbuf], i32, i32, ptr, i64, i32, ptr, %struct.digestdata, %struct.digestdata, %struct.auth, %struct.auth, %struct.Curl_async, ptr, %struct.curltime, %struct.Curl_tree, %struct.Curl_llist, [15 x %struct.time_node], ptr, i8, i64, ptr, i64, i64, %struct.Curl_data_priority, ptr, ptr, ptr, %struct.urlpieces, ptr, ptr, ptr, ptr, ptr, i64, %struct.dynbuf, %struct.Curl_llist, [2 x %struct.curl_header], ptr, i32, ptr, %struct.dynamically_allocated_data, i8, i8, i8, i8, i24 }
%struct.tempbuf = type { %struct.dynbuf, i32, i8 }
%struct.digestdata = type { ptr, ptr, ptr, ptr, ptr, ptr, i32, i8, i8 }
%struct.auth = type { i64, i64, i64, i8 }
%struct.Curl_async = type { ptr, ptr, ptr, ptr, i32, i32, i8 }
%struct.Curl_tree = type { ptr, ptr, ptr, ptr, %struct.curltime, ptr }
%struct.time_node = type { %struct.Curl_llist_element, %struct.curltime, i32 }
%struct.urlpieces = type { ptr, ptr, ptr, ptr, ptr, ptr, ptr, ptr }
%struct.dynbuf = type { ptr, i64, i64, i64 }
%struct.Curl_llist = type { ptr, ptr, ptr, i64 }
%struct.curl_header = type { ptr, ptr, i64, i64, i32, ptr }
%struct.dynamically_allocated_data = type { ptr, ptr, ptr, ptr, ptr, ptr, ptr, ptr, ptr, ptr, ptr, ptr, ptr, ptr }
%struct.PureInfo = type { i32, i32, i32, i64, i64, i64, i64, i64, ptr, ptr, i64, i32, [46 x i8], i32, i32, [46 x i8], i32, ptr, i32, %struct.curl_certinfo, i32, i8 }
%struct.curl_certinfo = type { i32, ptr }
%struct.curl_tlssessioninfo = type { i32, ptr }
%struct.connectdata = type { %struct.Curl_llist_element, ptr, ptr, i64, ptr, ptr, %struct.hostname, ptr, ptr, %struct.hostname, %struct.proxy_info, %struct.proxy_info, [46 x i8], ptr, ptr, ptr, ptr, ptr, %struct.curltime, %struct.curltime, %struct.curltime, [2 x i32], [2 x ptr], [2 x ptr], [2 x ptr], %struct.ssl_primary_config, %struct.ssl_primary_config, %struct.ConnectBits, ptr, ptr, %struct.curltime, i32, i32, %struct.Curl_llist, ptr, ptr, i32, i32, %struct.ntlmdata, %struct.ntlmdata, %union.anon.2, ptr, ptr, i16, i32, i32, i32, i32, i32, i16, i16, i8, i8, i8, i8, i8, i8, i8 }
%struct.hostname = type { ptr, ptr, ptr, ptr }
%struct.proxy_info = type { %struct.hostname, i32, i8, ptr, ptr }
%struct.ConnectBits = type { i32 }
%struct.ntlmdata = type { i32, [8 x i8], i32, ptr }
%union.anon.2 = type { %struct.ftp_conn }
%struct.ftp_conn = type { %struct.pingpong, ptr, ptr, ptr, ptr, ptr, ptr, ptr, i8, i64, ptr, i64, i32, i32, i32, i32, i32, i16, i8, i8, i8, i8, i8 }
%struct.pingpong = type { i64, i8, ptr, i64, i64, %struct.curltime, i64, %struct.dynbuf, %struct.dynbuf, i64, i64, ptr, ptr }
%struct.Curl_cfilter = type { ptr, ptr, ptr, ptr, i32, i8 }
%struct.cf_socket_ctx = type { i32, %struct.Curl_sockaddr_ex, i32, %struct.bufq, [46 x i8], i32, [46 x i8], i32, %struct.curltime, %struct.curltime, %struct.curltime, i32, i8 }
%struct.bufq = type { ptr, ptr, ptr, ptr, i64, i64, i64, i32 }

@.str.32 = private unnamed_addr constant [20 x i8] c"cf_socket_close(%d)\00", align 1

; Function Attrs: nounwind uwtable
define internal i32 @socket_close(ptr noundef %0, ptr noundef %1, i32 noundef %2, i32 noundef %3) #0 {
  %5 = alloca i32, align 4
  %6 = alloca ptr, align 8
  %7 = alloca ptr, align 8
  %8 = alloca i32, align 4
  %9 = alloca i32, align 4
  %10 = alloca i32, align 4
  store ptr %0, ptr %6, align 8
  store ptr %1, ptr %7, align 8
  store i32 %2, ptr %8, align 4
  store i32 %3, ptr %9, align 4
  %11 = load i32, ptr %8, align 4
  %12 = icmp ne i32 %11, 0
  br i1 %12, label %13, label %35

13:                                               ; preds = %4
  %14 = load ptr, ptr %7, align 8
  %15 = icmp ne ptr %14, null
  br i1 %15, label %16, label %35

16:                                               ; preds = %13
  %17 = load ptr, ptr %7, align 8
  %18 = getelementptr inbounds %struct.connectdata, ptr %17, i32 0, i32 1
  %19 = load ptr, ptr %18, align 8
  %20 = icmp ne ptr %19, null
  br i1 %20, label %21, label %35

21:                                               ; preds = %16
  %22 = load ptr, ptr %6, align 8
  %23 = load i32, ptr %9, align 4
  call void @Curl_multi_closed(ptr noundef %22, i32 noundef %23)
  %24 = load ptr, ptr %6, align 8
  call void @Curl_set_in_callback(ptr noundef %24, i1 noundef zeroext true)
  %25 = load ptr, ptr %7, align 8
  %26 = getelementptr inbounds %struct.connectdata, ptr %25, i32 0, i32 1
  %27 = load ptr, ptr %26, align 8
  %28 = load ptr, ptr %7, align 8
  %29 = getelementptr inbounds %struct.connectdata, ptr %28, i32 0, i32 2
  %30 = load ptr, ptr %29, align 8
  %31 = load i32, ptr %9, align 4
  %32 = call i32 %27(ptr noundef %30, i32 noundef %31)
  store i32 %32, ptr %10, align 4
  %33 = load ptr, ptr %6, align 8
  call void @Curl_set_in_callback(ptr noundef %33, i1 noundef zeroext false)
  %34 = load i32, ptr %10, align 4
  store i32 %34, ptr %5, align 4
  br label %44

35:                                               ; preds = %16, %13, %4
  %36 = load ptr, ptr %7, align 8
  %37 = icmp ne ptr %36, null
  br i1 %37, label %38, label %41

38:                                               ; preds = %35
  %39 = load ptr, ptr %6, align 8
  %40 = load i32, ptr %9, align 4
  call void @Curl_multi_closed(ptr noundef %39, i32 noundef %40)
  br label %41

41:                                               ; preds = %38, %35
  %42 = load i32, ptr %9, align 4
  %43 = call i32 @close(i32 noundef %42)
  store i32 0, ptr %5, align 4
  br label %44

44:                                               ; preds = %41, %21
  %45 = load i32, ptr %5, align 4
  ret i32 %45
}

; Function Attrs: nounwind uwtable
define internal void @cf_socket_close(ptr noundef %0, ptr noundef %1) #0 {
  %3 = alloca ptr, align 8
  %4 = alloca ptr, align 8
  %5 = alloca ptr, align 8
  store ptr %0, ptr %3, align 8
  store ptr %1, ptr %4, align 8
  %6 = load ptr, ptr %3, align 8
  %7 = getelementptr inbounds %struct.Curl_cfilter, ptr %6, i32 0, i32 2
  %8 = load ptr, ptr %7, align 8
  store ptr %8, ptr %5, align 8
  %9 = load ptr, ptr %5, align 8
  %10 = icmp ne ptr %9, null
  br i1 %10, label %11, label %125

11:                                               ; preds = %2
  %12 = load ptr, ptr %5, align 8
  %13 = getelementptr inbounds %struct.cf_socket_ctx, ptr %12, i32 0, i32 2
  %14 = load i32, ptr %13, align 8
  %15 = icmp ne i32 -1, %14
  br i1 %15, label %16, label %125

16:                                               ; preds = %11
  br label %17

17:                                               ; preds = %16
  %18 = load ptr, ptr %4, align 8
  %19 = icmp ne ptr %18, null
  br i1 %19, label %20, label %45

20:                                               ; preds = %17
  %21 = load ptr, ptr %4, align 8
  %22 = getelementptr inbounds %struct.Curl_easy, ptr %21, i32 0, i32 16
  %23 = getelementptr inbounds %struct.UserDefined, ptr %22, i32 0, i32 122
  %24 = load i64, ptr %23, align 2
  %25 = lshr i64 %24, 28
  %26 = and i64 %25, 1
  %27 = trunc i64 %26 to i32
  %28 = icmp ne i32 %27, 0
  br i1 %28, label %29, label %45

29:                                               ; preds = %20
  %30 = load ptr, ptr %3, align 8
  %31 = icmp ne ptr %30, null
  br i1 %31, label %32, label %45

32:                                               ; preds = %29
  %33 = load ptr, ptr %3, align 8
  %34 = getelementptr inbounds %struct.Curl_cfilter, ptr %33, i32 0, i32 0
  %35 = load ptr, ptr %34, align 8
  %36 = getelementptr inbounds %struct.Curl_cftype, ptr %35, i32 0, i32 2
  %37 = load i32, ptr %36, align 4
  %38 = icmp sge i32 %37, 1
  br i1 %38, label %39, label %45

39:                                               ; preds = %32
  %40 = load ptr, ptr %4, align 8
  %41 = load ptr, ptr %3, align 8
  %42 = load ptr, ptr %5, align 8
  %43 = getelementptr inbounds %struct.cf_socket_ctx, ptr %42, i32 0, i32 2
  %44 = load i32, ptr %43, align 8
  call void (ptr, ptr, ptr, ...) @Curl_trc_cf_infof(ptr noundef %40, ptr noundef %41, ptr noundef @.str.32, i32 noundef %44)
  br label %45

45:                                               ; preds = %39, %32, %29, %20, %17
  br label %46

46:                                               ; preds = %45
  %47 = load ptr, ptr %5, align 8
  %48 = getelementptr inbounds %struct.cf_socket_ctx, ptr %47, i32 0, i32 2
  %49 = load i32, ptr %48, align 8
  %50 = load ptr, ptr %3, align 8
  %51 = getelementptr inbounds %struct.Curl_cfilter, ptr %50, i32 0, i32 3
  %52 = load ptr, ptr %51, align 8
  %53 = getelementptr inbounds %struct.connectdata, ptr %52, i32 0, i32 21
  %54 = load ptr, ptr %3, align 8
  %55 = getelementptr inbounds %struct.Curl_cfilter, ptr %54, i32 0, i32 4
  %56 = load i32, ptr %55, align 8
  %57 = sext i32 %56 to i64
  %58 = getelementptr inbounds [2 x i32], ptr %53, i64 0, i64 %57
  %59 = load i32, ptr %58, align 4
  %60 = icmp eq i32 %49, %59
  br i1 %60, label %61, label %71

61:                                               ; preds = %46
  %62 = load ptr, ptr %3, align 8
  %63 = getelementptr inbounds %struct.Curl_cfilter, ptr %62, i32 0, i32 3
  %64 = load ptr, ptr %63, align 8
  %65 = getelementptr inbounds %struct.connectdata, ptr %64, i32 0, i32 21
  %66 = load ptr, ptr %3, align 8
  %67 = getelementptr inbounds %struct.Curl_cfilter, ptr %66, i32 0, i32 4
  %68 = load i32, ptr %67, align 8
  %69 = sext i32 %68 to i64
  %70 = getelementptr inbounds [2 x i32], ptr %65, i64 0, i64 %69
  store i32 -1, ptr %70, align 4
  br label %71

71:                                               ; preds = %61, %46
  %72 = load ptr, ptr %4, align 8
  %73 = load ptr, ptr %3, align 8
  %74 = getelementptr inbounds %struct.Curl_cfilter, ptr %73, i32 0, i32 3
  %75 = load ptr, ptr %74, align 8
  %76 = load ptr, ptr %5, align 8
  %77 = getelementptr inbounds %struct.cf_socket_ctx, ptr %76, i32 0, i32 12
  %78 = load i8, ptr %77, align 4
  %79 = lshr i8 %78, 1
  %80 = and i8 %79, 1
  %81 = zext i8 %80 to i32
  %82 = icmp ne i32 %81, 0
  %83 = xor i1 %82, true
  %84 = zext i1 %83 to i32
  %85 = load ptr, ptr %5, align 8
  %86 = getelementptr inbounds %struct.cf_socket_ctx, ptr %85, i32 0, i32 2
  %87 = load i32, ptr %86, align 8
  %88 = call i32 @socket_close(ptr noundef %72, ptr noundef %75, i32 noundef %84, i32 noundef %87)
  %89 = load ptr, ptr %5, align 8
  %90 = getelementptr inbounds %struct.cf_socket_ctx, ptr %89, i32 0, i32 2
  store i32 -1, ptr %90, align 8
  %91 = load ptr, ptr %5, align 8
  %92 = getelementptr inbounds %struct.cf_socket_ctx, ptr %91, i32 0, i32 12
  %93 = load i8, ptr %92, align 4
  %94 = lshr i8 %93, 3
  %95 = and i8 %94, 1
  %96 = zext i8 %95 to i32
  %97 = icmp ne i32 %96, 0
  br i1 %97, label %98, label %108

98:                                               ; preds = %71
  %99 = load ptr, ptr %3, align 8
  %100 = getelementptr inbounds %struct.Curl_cfilter, ptr %99, i32 0, i32 4
  %101 = load i32, ptr %100, align 8
  %102 = icmp eq i32 %101, 0
  br i1 %102, label %103, label %108

103:                                              ; preds = %98
  %104 = load ptr, ptr %3, align 8
  %105 = getelementptr inbounds %struct.Curl_cfilter, ptr %104, i32 0, i32 3
  %106 = load ptr, ptr %105, align 8
  %107 = getelementptr inbounds %struct.connectdata, ptr %106, i32 0, i32 5
  store ptr null, ptr %107, align 8
  br label %108

108:                                              ; preds = %103, %98, %71
  %109 = load ptr, ptr %5, align 8
  %110 = getelementptr inbounds %struct.cf_socket_ctx, ptr %109, i32 0, i32 3
  call void @Curl_bufq_reset(ptr noundef %110)
  %111 = load ptr, ptr %5, align 8
  %112 = getelementptr inbounds %struct.cf_socket_ctx, ptr %111, i32 0, i32 12
  %113 = load i8, ptr %112, align 4
  %114 = and i8 %113, -9
  %115 = or i8 %114, 0
  store i8 %115, ptr %112, align 4
  %116 = load ptr, ptr %5, align 8
  %117 = getelementptr inbounds %struct.cf_socket_ctx, ptr %116, i32 0, i32 12
  %118 = load i8, ptr %117, align 4
  %119 = and i8 %118, -17
  %120 = or i8 %119, 0
  store i8 %120, ptr %117, align 4
  %121 = load ptr, ptr %5, align 8
  %122 = getelementptr inbounds %struct.cf_socket_ctx, ptr %121, i32 0, i32 8
  call void @llvm.memset.p0.i64(ptr align 8 %122, i8 0, i64 16, i1 false)
  %123 = load ptr, ptr %5, align 8
  %124 = getelementptr inbounds %struct.cf_socket_ctx, ptr %123, i32 0, i32 9
  call void @llvm.memset.p0.i64(ptr align 8 %124, i8 0, i64 16, i1 false)
  br label %125

125:                                              ; preds = %108, %11, %2
  %126 = load ptr, ptr %3, align 8
  %127 = getelementptr inbounds %struct.Curl_cfilter, ptr %126, i32 0, i32 5
  %128 = load i8, ptr %127, align 4
  %129 = and i8 %128, -2
  %130 = or i8 %129, 0
  store i8 %130, ptr %127, align 4
  ret void
}