; Function Attrs: nounwind uwtable
define internal void @cf_socket_close(ptr noundef %0, ptr noundef %1) #2 {
  %3 = getelementptr inbounds nuw i8, ptr %0, i64 16
  %4 = load ptr, ptr %3, align 8
  %.not = icmp eq ptr %4, null
  br i1 %.not, label %62, label %5

5:                                                ; preds = %2
  %6 = getelementptr inbounds nuw i8, ptr %4, i64 152
  %7 = load i32, ptr %6, align 8
  %.not33 = icmp eq i32 %7, -1
  br i1 %.not33, label %62, label %8

8:                                                ; preds = %5
  %.not34 = icmp eq ptr %1, null
  br i1 %.not34, label %19, label %9

9:                                                ; preds = %8
  %10 = getelementptr inbounds nuw i8, ptr %1, i64 2642
  %11 = load i64, ptr %10, align 2
  %12 = and i64 %11, 268435456
  %.not37 = icmp eq i64 %12, 0
  br i1 %.not37, label %19, label %13

13:                                               ; preds = %9
  %14 = load ptr, ptr %0, align 8
  %15 = getelementptr inbounds nuw i8, ptr %14, i64 12
  %16 = load i32, ptr %15, align 4
  %17 = icmp sgt i32 %16, 0
  br i1 %17, label %18, label %19

18:                                               ; preds = %13
  tail call void (ptr, ptr, ptr, ...) @Curl_trc_cf_infof(ptr noundef nonnull %1, ptr noundef nonnull %0, ptr noundef nonnull @.str.32, i32 noundef %7) #13
  %.pre = load i32, ptr %6, align 8
  br label %19

19:                                               ; preds = %8, %9, %13, %18
  %20 = phi i32 [ %7, %8 ], [ %7, %9 ], [ %7, %13 ], [ %.pre, %18 ]
  %21 = getelementptr inbounds nuw i8, ptr %0, i64 24
  %22 = load ptr, ptr %21, align 8
  %23 = getelementptr inbounds nuw i8, ptr %22, i64 392
  %24 = getelementptr inbounds nuw i8, ptr %0, i64 32
  %25 = load i32, ptr %24, align 8
  %26 = sext i32 %25 to i64
  %27 = getelementptr inbounds [2 x i32], ptr %23, i64 0, i64 %26
  %28 = load i32, ptr %27, align 4
  %29 = icmp eq i32 %20, %28
  br i1 %29, label %30, label %31

30:                                               ; preds = %19
  store i32 -1, ptr %27, align 4
  %.pre38 = load ptr, ptr %21, align 8
  %.pre39 = load i32, ptr %6, align 8
  br label %31

31:                                               ; preds = %30, %19
  %32 = phi i32 [ %.pre39, %30 ], [ %20, %19 ]
  %33 = phi ptr [ %.pre38, %30 ], [ %22, %19 ]
  %34 = getelementptr inbounds nuw i8, ptr %4, i64 380
  %35 = load i8, ptr %34, align 4
  %36 = and i8 %35, 2
  %.not35 = icmp eq i8 %36, 0
  %37 = icmp ne ptr %33, null
  %or.cond.i = and i1 %37, %.not35
  br i1 %or.cond.i, label %38, label %46

38:                                               ; preds = %31
  %39 = getelementptr inbounds nuw i8, ptr %33, i64 24
  %40 = load ptr, ptr %39, align 8
  %.not.i = icmp eq ptr %40, null
  br i1 %.not.i, label %.thread.i, label %41

41:                                               ; preds = %38
  tail call void @Curl_multi_closed(ptr noundef %1, i32 noundef %32) #13
  tail call void @Curl_set_in_callback(ptr noundef %1, i1 noundef zeroext true) #13
  %42 = load ptr, ptr %39, align 8
  %43 = getelementptr inbounds nuw i8, ptr %33, i64 32
  %44 = load ptr, ptr %43, align 8
  %45 = tail call i32 %42(ptr noundef %44, i32 noundef %32) #13
  tail call void @Curl_set_in_callback(ptr noundef %1, i1 noundef zeroext false) #13
  br label %socket_close.exit

46:                                               ; preds = %31
  br i1 %37, label %.thread.i, label %47

.thread.i:                                        ; preds = %46, %38
  tail call void @Curl_multi_closed(ptr noundef %1, i32 noundef %32) #13
  br label %47

47:                                               ; preds = %.thread.i, %46
  %48 = tail call i32 @close(i32 noundef %32) #13
  br label %socket_close.exit

socket_close.exit:                                ; preds = %41, %47
  store i32 -1, ptr %6, align 8
  %49 = load i8, ptr %34, align 4
  %50 = and i8 %49, 8
  %.not36 = icmp eq i8 %50, 0
  br i1 %.not36, label %57, label %51

51:                                               ; preds = %socket_close.exit
  %52 = load i32, ptr %24, align 8
  %53 = icmp eq i32 %52, 0
  br i1 %53, label %54, label %57

54:                                               ; preds = %51
  %55 = load ptr, ptr %21, align 8
  %56 = getelementptr inbounds nuw i8, ptr %55, i64 56
  store ptr null, ptr %56, align 8
  br label %57

57:                                               ; preds = %54, %51, %socket_close.exit
  %58 = getelementptr inbounds nuw i8, ptr %4, i64 160
  tail call void @Curl_bufq_reset(ptr noundef nonnull %58) #13
  %59 = load i8, ptr %34, align 4
  %60 = and i8 %59, -25
  store i8 %60, ptr %34, align 4
  %61 = getelementptr inbounds nuw i8, ptr %4, i64 328
  tail call void @llvm.memset.p0.i64(ptr noundef nonnull align 8 dereferenceable(32) %61, i8 0, i64 32, i1 false)
  br label %62

62:                                               ; preds = %57, %5, %2
  %63 = getelementptr inbounds nuw i8, ptr %0, i64 36
  %64 = load i8, ptr %63, align 4
  %65 = and i8 %64, -2
  store i8 %65, ptr %63, align 4
  ret void
}